target datalayout = "e-m:e-p270:32:32-p271:32:32-p272:64:64-i64:64-i128:128-f80:128-n8:16:32:64-S128"
target triple = "x86_64-pc-linux-gnu"

%struct.strbuf = type { i64, i64, ptr }

@strbuf_slopbuf = external global [0 x i8], align 1
@.str.3 = private unnamed_addr constant [3 x i8] c"\22\\\00", align 1
@.str.11 = private unnamed_addr constant [11 x i8] c"./strbuf.h\00", align 1
@.str.12 = private unnamed_addr constant [30 x i8] c"strbuf_setlen() beyond buffer\00", align 1

; Function Attrs: inlinehint nounwind uwtable
define internal i64 @strbuf_avail(ptr noundef %0) #3 {
  %2 = alloca ptr, align 8
  store ptr %0, ptr %2, align 8, !tbaa !4
  %3 = load ptr, ptr %2, align 8, !tbaa !4
  %4 = getelementptr inbounds nuw %struct.strbuf, ptr %3, i32 0, i32 0
  %5 = load i64, ptr %4, align 8, !tbaa !37
  %6 = icmp ne i64 %5, 0
  br i1 %6, label %7, label %16

7:                                                ; preds = %1
  %8 = load ptr, ptr %2, align 8, !tbaa !4
  %9 = getelementptr inbounds nuw %struct.strbuf, ptr %8, i32 0, i32 0
  %10 = load i64, ptr %9, align 8, !tbaa !37
  %11 = load ptr, ptr %2, align 8, !tbaa !4
  %12 = getelementptr inbounds nuw %struct.strbuf, ptr %11, i32 0, i32 1
  %13 = load i64, ptr %12, align 8, !tbaa !21
  %14 = sub i64 %10, %13
  %15 = sub i64 %14, 1
  br label %17

16:                                               ; preds = %1
  br label %17

17:                                               ; preds = %16, %7
  %18 = phi i64 [ %15, %7 ], [ 0, %16 ]
  ret i64 %18
}

; Function Attrs: inlinehint nounwind uwtable
define internal void @strbuf_setlen(ptr noundef %0, i64 noundef %1) #3 {
  %3 = alloca ptr, align 8
  %4 = alloca i64, align 8
  store ptr %0, ptr %3, align 8, !tbaa !4
  store i64 %1, ptr %4, align 8, !tbaa !15
  %5 = load i64, ptr %4, align 8, !tbaa !15
  %6 = load ptr, ptr %3, align 8, !tbaa !4
  %7 = getelementptr inbounds nuw %struct.strbuf, ptr %6, i32 0, i32 0
  %8 = load i64, ptr %7, align 8, !tbaa !37
  %9 = icmp ne i64 %8, 0
  br i1 %9, label %10, label %15

10:                                               ; preds = %2
  %11 = load ptr, ptr %3, align 8, !tbaa !4
  %12 = getelementptr inbounds nuw %struct.strbuf, ptr %11, i32 0, i32 0
  %13 = load i64, ptr %12, align 8, !tbaa !37
  %14 = sub i64 %13, 1
  br label %16

15:                                               ; preds = %2
  br label %16

16:                                               ; preds = %15, %10
  %17 = phi i64 [ %14, %10 ], [ 0, %15 ]
  %18 = icmp ugt i64 %5, %17
  br i1 %18, label %19, label %20

19:                                               ; preds = %16
  call void (ptr, i32, ptr, ...) @BUG_fl(ptr noundef @.str.11, i32 noundef 167, ptr noundef @.str.12) #11
  unreachable

20:                                               ; preds = %16
  %21 = load i64, ptr %4, align 8, !tbaa !15
  %22 = load ptr, ptr %3, align 8, !tbaa !4
  %23 = getelementptr inbounds nuw %struct.strbuf, ptr %22, i32 0, i32 1
  store i64 %21, ptr %23, align 8, !tbaa !21
  %24 = load ptr, ptr %3, align 8, !tbaa !4
  %25 = getelementptr inbounds nuw %struct.strbuf, ptr %24, i32 0, i32 2
  %26 = load ptr, ptr %25, align 8, !tbaa !11
  %27 = icmp ne ptr %26, @strbuf_slopbuf
  br i1 %27, label %28, label %34

28:                                               ; preds = %20
  %29 = load ptr, ptr %3, align 8, !tbaa !4
  %30 = getelementptr inbounds nuw %struct.strbuf, ptr %29, i32 0, i32 2
  %31 = load ptr, ptr %30, align 8, !tbaa !11
  %32 = load i64, ptr %4, align 8, !tbaa !15
  %33 = getelementptr inbounds nuw i8, ptr %31, i64 %32
  store i8 0, ptr %33, align 1, !tbaa !14
  br label %35

34:                                               ; preds = %20
  br label %35

35:                                               ; preds = %34, %28
  ret void
}

; Function Attrs: inlinehint nounwind uwtable
define internal void @strbuf_addch(ptr noundef %0, i32 noundef %1) #3 {
  %3 = alloca ptr, align 8
  %4 = alloca i32, align 4
  store ptr %0, ptr %3, align 8, !tbaa !4
  store i32 %1, ptr %4, align 4, !tbaa !19
  %5 = load ptr, ptr %3, align 8, !tbaa !4
  %6 = call i64 @strbuf_avail(ptr noundef %5)
  %7 = icmp ne i64 %6, 0
  br i1 %7, label %10, label %8

8:                                                ; preds = %2
  %9 = load ptr, ptr %3, align 8, !tbaa !4
  call void @strbuf_grow(ptr noundef %9, i64 noundef 1)
  br label %10

10:                                               ; preds = %8, %2
  %11 = load i32, ptr %4, align 4, !tbaa !19
  %12 = trunc i32 %11 to i8
  %13 = load ptr, ptr %3, align 8, !tbaa !4
  %14 = getelementptr inbounds nuw %struct.strbuf, ptr %13, i32 0, i32 2
  %15 = load ptr, ptr %14, align 8, !tbaa !11
  %16 = load ptr, ptr %3, align 8, !tbaa !4
  %17 = getelementptr inbounds nuw %struct.strbuf, ptr %16, i32 0, i32 1
  %18 = load i64, ptr %17, align 8, !tbaa !21
  %19 = add i64 %18, 1
  store i64 %19, ptr %17, align 8, !tbaa !21
  %20 = getelementptr inbounds nuw i8, ptr %15, i64 %18
  store i8 %12, ptr %20, align 1, !tbaa !14
  %21 = load ptr, ptr %3, align 8, !tbaa !4
  %22 = getelementptr inbounds nuw %struct.strbuf, ptr %21, i32 0, i32 2
  %23 = load ptr, ptr %22, align 8, !tbaa !11
  %24 = load ptr, ptr %3, align 8, !tbaa !4
  %25 = getelementptr inbounds nuw %struct.strbuf, ptr %24, i32 0, i32 1
  %26 = load i64, ptr %25, align 8, !tbaa !21
  %27 = getelementptr inbounds nuw i8, ptr %23, i64 %26
  store i8 0, ptr %27, align 1, !tbaa !14
  ret void
}

; Function Attrs: nounwind uwtable
define dso_local i32 @unquote_c_style(ptr noundef %0, ptr noundef %1, ptr noundef %2) #0 {
  %4 = alloca i32, align 4
  %5 = alloca ptr, align 8
  %6 = alloca ptr, align 8
  %7 = alloca ptr, align 8
  %8 = alloca i64, align 8
  %9 = alloca i64, align 8
  %10 = alloca i32, align 4
  %11 = alloca i32, align 4
  %12 = alloca i32, align 4
  store ptr %0, ptr %5, align 8, !tbaa !4
  store ptr %1, ptr %6, align 8, !tbaa !9
  store ptr %2, ptr %7, align 8, !tbaa !23
  call void @llvm.lifetime.start.p0(i64 8, ptr %8) #9
  %13 = load ptr, ptr %5, align 8, !tbaa !4
  %14 = getelementptr inbounds nuw %struct.strbuf, ptr %13, i32 0, i32 1
  %15 = load i64, ptr %14, align 8, !tbaa !21
  store i64 %15, ptr %8, align 8, !tbaa !15
  call void @llvm.lifetime.start.p0(i64 8, ptr %9) #9
  call void @llvm.lifetime.start.p0(i64 4, ptr %10) #9
  call void @llvm.lifetime.start.p0(i64 4, ptr %11) #9
  %16 = load ptr, ptr %6, align 8, !tbaa !9
  %17 = getelementptr inbounds nuw i8, ptr %16, i32 1
  store ptr %17, ptr %6, align 8, !tbaa !9
  %18 = load i8, ptr %16, align 1, !tbaa !14
  %19 = sext i8 %18 to i32
  %20 = icmp ne i32 %19, 34
  br i1 %20, label %21, label %22

21:                                               ; preds = %3
  store i32 -1, ptr %4, align 4
  store i32 1, ptr %12, align 4
  br label %98

22:                                               ; preds = %3
  br label %23

23:                                               ; preds = %92, %22
  %24 = load ptr, ptr %6, align 8, !tbaa !9
  %25 = call i64 @strcspn(ptr noundef %24, ptr noundef @.str.3) #10
  store i64 %25, ptr %9, align 8, !tbaa !15
  %26 = load ptr, ptr %5, align 8, !tbaa !4
  %27 = load ptr, ptr %6, align 8, !tbaa !9
  %28 = load i64, ptr %9, align 8, !tbaa !15
  call void @strbuf_add(ptr noundef %26, ptr noundef %27, i64 noundef %28)
  %29 = load i64, ptr %9, align 8, !tbaa !15
  %30 = load ptr, ptr %6, align 8, !tbaa !9
  %31 = getelementptr inbounds nuw i8, ptr %30, i64 %29
  store ptr %31, ptr %6, align 8, !tbaa !9
  %32 = load ptr, ptr %6, align 8, !tbaa !9
  %33 = getelementptr inbounds nuw i8, ptr %32, i32 1
  store ptr %33, ptr %6, align 8, !tbaa !9
  %34 = load i8, ptr %32, align 1, !tbaa !14
  %35 = sext i8 %34 to i32
  switch i32 %35, label %43 [
    i32 34, label %36
    i32 92, label %44
  ]

36:                                               ; preds = %23
  %37 = load ptr, ptr %7, align 8, !tbaa !23
  %38 = icmp ne ptr %37, null
  br i1 %38, label %39, label %42

39:                                               ; preds = %36
  %40 = load ptr, ptr %6, align 8, !tbaa !9
  %41 = load ptr, ptr %7, align 8, !tbaa !23
  store ptr %40, ptr %41, align 8, !tbaa !9
  br label %42

42:                                               ; preds = %39, %36
  store i32 0, ptr %4, align 4
  store i32 1, ptr %12, align 4
  br label %98

43:                                               ; preds = %23
  br label %95

44:                                               ; preds = %23
  %45 = load ptr, ptr %6, align 8, !tbaa !9
  %46 = getelementptr inbounds nuw i8, ptr %45, i32 1
  store ptr %46, ptr %6, align 8, !tbaa !9
  %47 = load i8, ptr %45, align 1, !tbaa !14
  %48 = sext i8 %47 to i32
  store i32 %48, ptr %10, align 4, !tbaa !19
  switch i32 %48, label %91 [
    i32 97, label %49
    i32 98, label %50
    i32 102, label %51
    i32 110, label %52
    i32 114, label %53
    i32 116, label %54
    i32 118, label %55
    i32 92, label %56
    i32 34, label %56
    i32 48, label %57
    i32 49, label %57
    i32 50, label %57
    i32 51, label %57
  ]

49:                                               ; preds = %44
  store i32 7, ptr %10, align 4, !tbaa !19
  br label %92

50:                                               ; preds = %44
  store i32 8, ptr %10, align 4, !tbaa !19
  br label %92

51:                                               ; preds = %44
  store i32 12, ptr %10, align 4, !tbaa !19
  br label %92

52:                                               ; preds = %44
  store i32 10, ptr %10, align 4, !tbaa !19
  br label %92

53:                                               ; preds = %44
  store i32 13, ptr %10, align 4, !tbaa !19
  br label %92

54:                                               ; preds = %44
  store i32 9, ptr %10, align 4, !tbaa !19
  br label %92

55:                                               ; preds = %44
  store i32 11, ptr %10, align 4, !tbaa !19
  br label %92

56:                                               ; preds = %44, %44
  br label %92

57:                                               ; preds = %44, %44, %44, %44
  %58 = load i32, ptr %10, align 4, !tbaa !19
  %59 = sub nsw i32 %58, 48
  %60 = shl i32 %59, 6
  store i32 %60, ptr %11, align 4, !tbaa !19
  %61 = load ptr, ptr %6, align 8, !tbaa !9
  %62 = getelementptr inbounds nuw i8, ptr %61, i32 1
  store ptr %62, ptr %6, align 8, !tbaa !9
  %63 = load i8, ptr %61, align 1, !tbaa !14
  %64 = sext i8 %63 to i32
  store i32 %64, ptr %10, align 4, !tbaa !19
  %65 = icmp slt i32 %64, 48
  br i1 %65, label %69, label %66

66:                                               ; preds = %57
  %67 = load i32, ptr %10, align 4, !tbaa !19
  %68 = icmp slt i32 55, %67
  br i1 %68, label %69, label %70

69:                                               ; preds = %66, %57
  br label %95

70:                                               ; preds = %66
  %71 = load i32, ptr %10, align 4, !tbaa !19
  %72 = sub nsw i32 %71, 48
  %73 = shl i32 %72, 3
  %74 = load i32, ptr %11, align 4, !tbaa !19
  %75 = or i32 %74, %73
  store i32 %75, ptr %11, align 4, !tbaa !19
  %76 = load ptr, ptr %6, align 8, !tbaa !9
  %77 = getelementptr inbounds nuw i8, ptr %76, i32 1
  store ptr %77, ptr %6, align 8, !tbaa !9
  %78 = load i8, ptr %76, align 1, !tbaa !14
  %79 = sext i8 %78 to i32
  store i32 %79, ptr %10, align 4, !tbaa !19
  %80 = icmp slt i32 %79, 48
  br i1 %80, label %84, label %81

81:                                               ; preds = %70
  %82 = load i32, ptr %10, align 4, !tbaa !19
  %83 = icmp slt i32 55, %82
  br i1 %83, label %84, label %85

84:                                               ; preds = %81, %70
  br label %95

85:                                               ; preds = %81
  %86 = load i32, ptr %10, align 4, !tbaa !19
  %87 = sub nsw i32 %86, 48
  %88 = load i32, ptr %11, align 4, !tbaa !19
  %89 = or i32 %88, %87
  store i32 %89, ptr %11, align 4, !tbaa !19
  %90 = load i32, ptr %11, align 4, !tbaa !19
  store i32 %90, ptr %10, align 4, !tbaa !19
  br label %92

91:                                               ; preds = %44
  br label %95

92:                                               ; preds = %85, %56, %55, %54, %53, %52, %51, %50, %49
  %93 = load ptr, ptr %5, align 8, !tbaa !4
  %94 = load i32, ptr %10, align 4, !tbaa !19
  call void @strbuf_addch(ptr noundef %93, i32 noundef %94)
  br label %23

95:                                               ; preds = %91, %84, %69, %43
  %96 = load ptr, ptr %5, align 8, !tbaa !4
  %97 = load i64, ptr %8, align 8, !tbaa !15
  call void @strbuf_setlen(ptr noundef %96, i64 noundef %97)
  store i32 -1, ptr %4, align 4
  store i32 1, ptr %12, align 4
  br label %98

98:                                               ; preds = %95, %42, %21
  call void @llvm.lifetime.end.p0(i64 4, ptr %11) #9
  call void @llvm.lifetime.end.p0(i64 4, ptr %10) #9
  call void @llvm.lifetime.end.p0(i64 8, ptr %9) #9
  call void @llvm.lifetime.end.p0(i64 8, ptr %8) #9
  %99 = load i32, ptr %4, align 4
  ret i32 %99
}