; Function Attrs: nounwind uwtable
define dso_local range(i32 -1, 1) i32 @unquote_c_style(ptr noundef %0, ptr noundef %1, ptr noundef writeonly %2) local_unnamed_addr #0 {
  %4 = getelementptr inbounds nuw i8, ptr %0, i64 8
  %5 = load i64, ptr %4, align 8, !tbaa !12
  %6 = load i8, ptr %1, align 1, !tbaa !13
  %.not = icmp eq i8 %6, 34
  br i1 %.not, label %.preheader, label %strbuf_setlen.exit

.preheader:                                       ; preds = %3
  %7 = getelementptr inbounds nuw i8, ptr %1, i64 1
  %8 = getelementptr inbounds nuw i8, ptr %0, i64 16
  br label %9

9:                                                ; preds = %.preheader, %strbuf_addch.exit
  %.031 = phi ptr [ %.1, %strbuf_addch.exit ], [ %7, %.preheader ]
  %10 = tail call i64 @strcspn(ptr noundef nonnull %.031, ptr noundef nonnull @.str.3) #13
  tail call void @strbuf_add(ptr noundef nonnull %0, ptr noundef nonnull %.031, i64 noundef %10) #12
  %11 = getelementptr inbounds nuw i8, ptr %.031, i64 %10
  %12 = getelementptr inbounds nuw i8, ptr %11, i64 1
  %13 = load i8, ptr %11, align 1, !tbaa !13
  switch i8 %13, label %50 [
    i8 34, label %14
    i8 92, label %16
  ]

14:                                               ; preds = %9
  %.not35 = icmp eq ptr %2, null
  br i1 %.not35, label %strbuf_setlen.exit, label %15

15:                                               ; preds = %14
  store ptr %12, ptr %2, align 8, !tbaa !17
  br label %strbuf_setlen.exit

16:                                               ; preds = %9
  %17 = getelementptr inbounds nuw i8, ptr %11, i64 2
  %18 = load i8, ptr %12, align 1, !tbaa !13
  switch i8 %18, label %50 [
    i8 97, label %19
    i8 98, label %20
    i8 102, label %21
    i8 110, label %22
    i8 114, label %23
    i8 116, label %24
    i8 118, label %25
    i8 92, label %41
    i8 34, label %41
    i8 48, label %26
    i8 49, label %26
    i8 50, label %26
    i8 51, label %26
  ]

19:                                               ; preds = %16
  br label %41

20:                                               ; preds = %16
  br label %41

21:                                               ; preds = %16
  br label %41

22:                                               ; preds = %16
  br label %41

23:                                               ; preds = %16
  br label %41

24:                                               ; preds = %16
  br label %41

25:                                               ; preds = %16
  br label %41

26:                                               ; preds = %16, %16, %16, %16
  %27 = load i8, ptr %17, align 1, !tbaa !13
  %28 = add i8 %27, -56
  %or.cond = icmp ult i8 %28, -8
  br i1 %or.cond, label %50, label %29

29:                                               ; preds = %26
  %30 = getelementptr inbounds nuw i8, ptr %11, i64 3
  %31 = load i8, ptr %30, align 1, !tbaa !13
  %32 = add i8 %31, -56
  %or.cond3 = icmp ult i8 %32, -8
  br i1 %or.cond3, label %50, label %33

33:                                               ; preds = %29
  %34 = getelementptr inbounds nuw i8, ptr %11, i64 4
  %35 = shl i8 %18, 6
  %36 = shl i8 %27, 3
  %37 = and i8 %36, 56
  %38 = or disjoint i8 %37, %35
  %39 = add nsw i8 %31, -48
  %40 = or disjoint i8 %39, %38
  br label %41

41:                                               ; preds = %16, %16, %33, %25, %24, %23, %22, %21, %20, %19
  %.1 = phi ptr [ %34, %33 ], [ %17, %16 ], [ %17, %16 ], [ %17, %25 ], [ %17, %24 ], [ %17, %23 ], [ %17, %22 ], [ %17, %21 ], [ %17, %20 ], [ %17, %19 ]
  %.0 = phi i8 [ %40, %33 ], [ %18, %16 ], [ %18, %16 ], [ 11, %25 ], [ 9, %24 ], [ 13, %23 ], [ 10, %22 ], [ 12, %21 ], [ 8, %20 ], [ 7, %19 ]
  %42 = load i64, ptr %0, align 8, !tbaa !11
  %.not.i.i = icmp eq i64 %42, 0
  br i1 %.not.i.i, label %strbuf_avail.exit.thread.i, label %strbuf_avail.exit.i

strbuf_avail.exit.i:                              ; preds = %41
  %43 = load i64, ptr %4, align 8, !tbaa !12
  %.neg.i = add i64 %43, 1
  %.not.i = icmp eq i64 %42, %.neg.i
  br i1 %.not.i, label %strbuf_avail.exit.thread.i, label %strbuf_addch.exit

strbuf_avail.exit.thread.i:                       ; preds = %strbuf_avail.exit.i, %41
  tail call void @strbuf_grow(ptr noundef nonnull %0, i64 noundef 1) #12
  %.pre.i = load i64, ptr %4, align 8, !tbaa !12
  %.pre7.i = add i64 %.pre.i, 1
  br label %strbuf_addch.exit

strbuf_addch.exit:                                ; preds = %strbuf_avail.exit.i, %strbuf_avail.exit.thread.i
  %.pre-phi.i = phi i64 [ %.pre7.i, %strbuf_avail.exit.thread.i ], [ %.neg.i, %strbuf_avail.exit.i ]
  %44 = phi i64 [ %.pre.i, %strbuf_avail.exit.thread.i ], [ %43, %strbuf_avail.exit.i ]
  %45 = load ptr, ptr %8, align 8, !tbaa !4
  store i64 %.pre-phi.i, ptr %4, align 8, !tbaa !12
  %46 = getelementptr inbounds nuw i8, ptr %45, i64 %44
  store i8 %.0, ptr %46, align 1, !tbaa !13
  %47 = load ptr, ptr %8, align 8, !tbaa !4
  %48 = load i64, ptr %4, align 8, !tbaa !12
  %49 = getelementptr inbounds nuw i8, ptr %47, i64 %48
  store i8 0, ptr %49, align 1, !tbaa !13
  br label %9

50:                                               ; preds = %16, %29, %26, %9
  %51 = load i64, ptr %0, align 8, !tbaa !11
  %spec.select.i = tail call i64 @llvm.usub.sat.i64(i64 %51, i64 1)
  %52 = icmp ugt i64 %5, %spec.select.i
  br i1 %52, label %53, label %54

53:                                               ; preds = %50
  tail call void (ptr, i32, ptr, ...) @BUG_fl(ptr noundef nonnull @.str.11, i32 noundef 167, ptr noundef nonnull @.str.12) #14
  unreachable

54:                                               ; preds = %50
  store i64 %5, ptr %4, align 8, !tbaa !12
  %55 = load ptr, ptr %8, align 8, !tbaa !4
  %.not9.i = icmp eq ptr %55, @strbuf_slopbuf
  br i1 %.not9.i, label %strbuf_setlen.exit, label %56

56:                                               ; preds = %54
  %57 = getelementptr inbounds nuw i8, ptr %55, i64 %5
  store i8 0, ptr %57, align 1, !tbaa !13
  br label %strbuf_setlen.exit

strbuf_setlen.exit:                               ; preds = %56, %54, %14, %15, %3
  %.030 = phi i32 [ -1, %3 ], [ 0, %15 ], [ 0, %14 ], [ -1, %54 ], [ -1, %56 ]
  ret i32 %.030
}